target datalayout = "e-m:e-p270:32:32-p271:32:32-p272:64:64-i64:64-i128:128-f80:128-n8:16:32:64-S128"
target triple = "x86_64-pc-linux-gnu"

%struct.JNINativeInterface_ = type { ptr, ptr, ptr, ptr, ptr, ptr, ptr, ptr, ptr, ptr, ptr, ptr, ptr, ptr, ptr, ptr, ptr, ptr, ptr, ptr, ptr, ptr, ptr, ptr, ptr, ptr, ptr, ptr, ptr, ptr, ptr, ptr, ptr, ptr, ptr, ptr, ptr, ptr, ptr, ptr, ptr, ptr, ptr, ptr, ptr, ptr, ptr, ptr, ptr, ptr, ptr, ptr, ptr, ptr, ptr, ptr, ptr, ptr, ptr, ptr, ptr, ptr, ptr, ptr, ptr, ptr, ptr, ptr, ptr, ptr, ptr, ptr, ptr, ptr, ptr, ptr, ptr, ptr, ptr, ptr, ptr, ptr, ptr, ptr, ptr, ptr, ptr, ptr, ptr, ptr, ptr, ptr, ptr, ptr, ptr, ptr, ptr, ptr, ptr, ptr, ptr, ptr, ptr, ptr, ptr, ptr, ptr, ptr, ptr, ptr, ptr, ptr, ptr, ptr, ptr, ptr, ptr, ptr, ptr, ptr, ptr, ptr, ptr, ptr, ptr, ptr, ptr, ptr, ptr, ptr, ptr, ptr, ptr, ptr, ptr, ptr, ptr, ptr, ptr, ptr, ptr, ptr, ptr, ptr, ptr, ptr, ptr, ptr, ptr, ptr, ptr, ptr, ptr, ptr, ptr, ptr, ptr, ptr, ptr, ptr, ptr, ptr, ptr, ptr, ptr, ptr, ptr, ptr, ptr, ptr, ptr, ptr, ptr, ptr, ptr, ptr, ptr, ptr, ptr, ptr, ptr, ptr, ptr, ptr, ptr, ptr, ptr, ptr, ptr, ptr, ptr, ptr, ptr, ptr, ptr, ptr, ptr, ptr, ptr, ptr, ptr, ptr, ptr, ptr, ptr, ptr, ptr, ptr, ptr, ptr, ptr, ptr, ptr, ptr, ptr, ptr, ptr, ptr, ptr, ptr, ptr, ptr, ptr, ptr, ptr, ptr, ptr, ptr, ptr, ptr, ptr, ptr, ptr, ptr, ptr }

@ProcessHandleImpl_Info_totalTimeID = hidden global ptr null, align 8
@ProcessHandleImpl_Info_startTimeID = hidden global ptr null, align 8

; Function Attrs: nounwind uwtable
define void @Java_java_lang_ProcessHandleImpl_00024Info_info0(ptr noundef %0, ptr noundef %1, i64 noundef %2) #0 {
  %4 = alloca ptr, align 8
  %5 = alloca ptr, align 8
  %6 = alloca i64, align 8
  %7 = alloca i32, align 4
  %8 = alloca i32, align 4
  %9 = alloca i64, align 8
  %10 = alloca i64, align 8
  store ptr %0, ptr %4, align 8
  store ptr %1, ptr %5, align 8
  store i64 %2, ptr %6, align 8
  %11 = load i64, ptr %6, align 8
  %12 = trunc i64 %11 to i32
  store i32 %12, ptr %7, align 4
  store i64 -1, ptr %9, align 8
  store i64 -1, ptr %10, align 8
  %13 = load ptr, ptr %4, align 8
  %14 = load i32, ptr %7, align 4
  %15 = call i32 @os_getParentPidAndTimings(ptr noundef %13, i32 noundef %14, ptr noundef %9, ptr noundef %10)
  store i32 %15, ptr %8, align 4
  %16 = load i32, ptr %8, align 4
  %17 = icmp sge i32 %16, 0
  br i1 %17, label %18, label %57

18:                                               ; preds = %3
  %19 = load ptr, ptr %4, align 8
  %20 = load ptr, ptr %19, align 8
  %21 = getelementptr inbounds %struct.JNINativeInterface_, ptr %20, i32 0, i32 110
  %22 = load ptr, ptr %21, align 8
  %23 = load ptr, ptr %4, align 8
  %24 = load ptr, ptr %5, align 8
  %25 = load ptr, ptr @ProcessHandleImpl_Info_totalTimeID, align 8
  %26 = load i64, ptr %9, align 8
  call void %22(ptr noundef %23, ptr noundef %24, ptr noundef %25, i64 noundef %26)
  br label %27

27:                                               ; preds = %18
  %28 = load ptr, ptr %4, align 8
  %29 = load ptr, ptr %28, align 8
  %30 = getelementptr inbounds %struct.JNINativeInterface_, ptr %29, i32 0, i32 228
  %31 = load ptr, ptr %30, align 8
  %32 = load ptr, ptr %4, align 8
  %33 = call zeroext i8 %31(ptr noundef %32)
  %34 = icmp ne i8 %33, 0
  br i1 %34, label %35, label %36

35:                                               ; preds = %27
  br label %61

36:                                               ; preds = %27
  br label %37

37:                                               ; preds = %36
  %38 = load ptr, ptr %4, align 8
  %39 = load ptr, ptr %38, align 8
  %40 = getelementptr inbounds %struct.JNINativeInterface_, ptr %39, i32 0, i32 110
  %41 = load ptr, ptr %40, align 8
  %42 = load ptr, ptr %4, align 8
  %43 = load ptr, ptr %5, align 8
  %44 = load ptr, ptr @ProcessHandleImpl_Info_startTimeID, align 8
  %45 = load i64, ptr %10, align 8
  call void %41(ptr noundef %42, ptr noundef %43, ptr noundef %44, i64 noundef %45)
  br label %46

46:                                               ; preds = %37
  %47 = load ptr, ptr %4, align 8
  %48 = load ptr, ptr %47, align 8
  %49 = getelementptr inbounds %struct.JNINativeInterface_, ptr %48, i32 0, i32 228
  %50 = load ptr, ptr %49, align 8
  %51 = load ptr, ptr %4, align 8
  %52 = call zeroext i8 %50(ptr noundef %51)
  %53 = icmp ne i8 %52, 0
  br i1 %53, label %54, label %55

54:                                               ; preds = %46
  br label %61

55:                                               ; preds = %46
  br label %56

56:                                               ; preds = %55
  br label %57

57:                                               ; preds = %56, %3
  %58 = load ptr, ptr %4, align 8
  %59 = load ptr, ptr %5, align 8
  %60 = load i32, ptr %7, align 4
  call void @os_getCmdlineAndUserInfo(ptr noundef %58, ptr noundef %59, i32 noundef %60)
  br label %61

61:                                               ; preds = %57, %54, %35
  ret void
}