; Function Attrs: nounwind uwtable
define void @Java_java_lang_ProcessHandleImpl_00024Info_info0(ptr noundef %0, ptr noundef %1, i64 noundef %2) local_unnamed_addr #0 {
  %4 = alloca i64, align 8
  %5 = alloca i64, align 8
  %6 = trunc i64 %2 to i32
  store i64 -1, ptr %4, align 8
  store i64 -1, ptr %5, align 8
  %7 = call i32 @os_getParentPidAndTimings(ptr noundef %0, i32 noundef %6, ptr noundef nonnull %4, ptr noundef nonnull %5) #11
  %8 = icmp sgt i32 %7, -1
  br i1 %8, label %9, label %29

9:                                                ; preds = %3
  %10 = load ptr, ptr %0, align 8
  %11 = getelementptr inbounds i8, ptr %10, i64 880
  %12 = load ptr, ptr %11, align 8
  %13 = load ptr, ptr @ProcessHandleImpl_Info_totalTimeID, align 8
  %14 = load i64, ptr %4, align 8
  call void %12(ptr noundef nonnull %0, ptr noundef %1, ptr noundef %13, i64 noundef %14) #11
  %15 = load ptr, ptr %0, align 8
  %16 = getelementptr inbounds i8, ptr %15, i64 1824
  %17 = load ptr, ptr %16, align 8
  %18 = call zeroext i8 %17(ptr noundef nonnull %0) #11
  %.not = icmp eq i8 %18, 0
  br i1 %.not, label %19, label %30

19:                                               ; preds = %9
  %20 = load ptr, ptr %0, align 8
  %21 = getelementptr inbounds i8, ptr %20, i64 880
  %22 = load ptr, ptr %21, align 8
  %23 = load ptr, ptr @ProcessHandleImpl_Info_startTimeID, align 8
  %24 = load i64, ptr %5, align 8
  call void %22(ptr noundef nonnull %0, ptr noundef %1, ptr noundef %23, i64 noundef %24) #11
  %25 = load ptr, ptr %0, align 8
  %26 = getelementptr inbounds i8, ptr %25, i64 1824
  %27 = load ptr, ptr %26, align 8
  %28 = call zeroext i8 %27(ptr noundef nonnull %0) #11
  %.not16 = icmp eq i8 %28, 0
  br i1 %.not16, label %29, label %30

29:                                               ; preds = %19, %3
  call void @os_getCmdlineAndUserInfo(ptr noundef %0, ptr noundef %1, i32 noundef %6) #11
  br label %30

30:                                               ; preds = %19, %9, %29
  ret void
}